   1              		.cpu arm7tdmi
   2              		.fpu softvfp
   3              		.eabi_attribute 20, 1
   4              		.eabi_attribute 21, 1
   5              		.eabi_attribute 23, 3
   6              		.eabi_attribute 24, 1
   7              		.eabi_attribute 25, 1
   8              		.eabi_attribute 26, 1
   9              		.eabi_attribute 30, 1
  10              		.eabi_attribute 18, 4
  11              		.file	"trafo.c"
  21              	.Ltext0:
  22              		.file 1 "../trafo.c"
 987              		.align	2
 988              		.global	Gray2BinaryMatrix
 990              	Gray2BinaryMatrix:
 991              	.LFB1:
   1:../trafo.c    **** 
   2:../trafo.c    **** #include "trafo.h"
   3:../trafo.c    **** #include "types.h"
   4:../trafo.c    **** 
   5:../trafo.c    **** //-----------------------------------------------------------------------------------
   6:../trafo.c    **** //Las funciones que se definan en ensamblador deberán borrarse de este fichero
   7:../trafo.c    **** //de otra manera habría dos definciones de la misma función
   8:../trafo.c    **** //-----------------------------------------------------------------------------------
   9:../trafo.c    **** 
  10:../trafo.c    **** void RGB2GrayMatrix(pixelRGB orig[N][M], int dest[N][M], int nfilas, int ncols) {
  11:../trafo.c    ****     int i,j;
  12:../trafo.c    ****     
  13:../trafo.c    ****     for (i=0;i<nfilas;i++)
  14:../trafo.c    ****         for (j=0; j<ncols; j++)
  15:../trafo.c    ****             dest[i][j] =  rgb2gray(orig[i][j]);
  16:../trafo.c    ****     
  17:../trafo.c    **** }
  18:../trafo.c    **** 
  19:../trafo.c    **** void Gray2BinaryMatrix(int orig[N][M], int dest[N][M], int nfilas, int ncols) {
 992              		.loc 1 19 0
 993              		.cfi_startproc
 994              		@ Function supports interworking.
 995              		@ args = 0, pretend = 0, frame = 8
 996              		@ frame_needed = 0, uses_anonymous_args = 0
 997              		@ link register save eliminated.
 998              	.LVL0:
 999 0000 F0072DE9 		stmfd	sp!, {r4, r5, r6, r7, r8, r9, sl}
 1000              	.LCFI0:
 1001              		.cfi_def_cfa_offset 28
 1002 0004 0CD04DE2 		sub	sp, sp, #12
 1003              	.LCFI1:
 1004              		.cfi_def_cfa_offset 40
 1005              	.LVL1:
  20:../trafo.c    ****     int i,j;
  21:../trafo.c    ****     int umbral = 127;
  22:../trafo.c    ****     
  23:../trafo.c    ****     for (i=0;i<nfilas;i++)
 1006              		.loc 1 23 0
 1007 0008 009052E2 		subs	r9, r2, #0
 1008              		.cfi_offset 10, -4
 1009              		.cfi_offset 9, -8
 1010              		.cfi_offset 8, -12
 1011              		.cfi_offset 7, -16
 1012              		.cfi_offset 6, -20
 1013              		.cfi_offset 5, -24
 1014              		.cfi_offset 4, -28
 1015 000c 1B0000DA 		ble	.L1
 1016 0010 00A0A0E3 		mov	sl, #0
  24:../trafo.c    ****         for (j=0; j<ncols; j++)
 1017              		.loc 1 24 0
 1018 0014 0A50A0E1 		mov	r5, sl
 1019 0018 04A08DE5 		str	sl, [sp, #4]
  25:../trafo.c    ****             if (orig[i][j] > umbral)
  26:../trafo.c    ****                 dest[i][j]=1;
 1020              		.loc 1 26 0
 1021 001c 0180A0E3 		mov	r8, #1
 1022 0020 0E0000EA 		b	.L3
 1023              	.LVL2:
 1024              	.L6:
  25:../trafo.c    ****             if (orig[i][j] > umbral)
 1025              		.loc 1 25 0
 1026 0024 020097E7 		ldr	r0, [r7, r2]
 1027              		.loc 1 26 0
 1028 0028 800050E3 		cmp	r0, #128
 1029 002c 0500A0B1 		movlt	r0, r5
 1030 0030 0800A0A1 		movge	r0, r8
 1031 0034 020086E7 		str	r0, [r6, r2]
  24:../trafo.c    ****         for (j=0; j<ncols; j++)
 1032              		.loc 1 24 0
 1033 0038 01C08CE2 		add	ip, ip, #1
 1034              	.LVL3:
 1035 003c 042082E2 		add	r2, r2, #4
 1036 0040 03005CE1 		cmp	ip, r3
 1037 0044 F6FFFF1A 		bne	.L6
 1038 0048 0400A0E1 		mov	r0, r4
 1039              	.LVL4:
 1040              	.L7:
  23:../trafo.c    ****     for (i=0;i<nfilas;i++)
 1041              		.loc 1 23 0
 1042 004c 01A08AE2 		add	sl, sl, #1
 1043              	.LVL5:
 1044 0050 101081E2 		add	r1, r1, #16
 1045 0054 100080E2 		add	r0, r0, #16
 1046 0058 09005AE1 		cmp	sl, r9
 1047 005c 0700000A 		beq	.L1
 1048              	.LVL6:
 1049              	.L3:
  24:../trafo.c    ****         for (j=0; j<ncols; j++)
 1050              		.loc 1 24 0 discriminator 1
 1051 0060 000053E3 		cmp	r3, #0
 1052 0064 F8FFFFDA 		ble	.L7
  24:../trafo.c    ****         for (j=0; j<ncols; j++)
 1053              		.loc 1 24 0 is_stmt 0
 1054 0068 0070A0E1 		mov	r7, r0
 1055 006c 0160A0E1 		mov	r6, r1
 1056 0070 0520A0E1 		mov	r2, r5
 1057 0074 04C09DE5 		ldr	ip, [sp, #4]
 1058 0078 0040A0E1 		mov	r4, r0
 1059 007c E8FFFFEA 		b	.L6
 1060              	.LVL7:
 1061              	.L1:
  27:../trafo.c    ****             else
  28:../trafo.c    ****                  dest[i][j]=0;
  29:../trafo.c    ****     
  30:../trafo.c    **** }
 1062              		.loc 1 30 0 is_stmt 1
 1063 0080 0CD08DE2 		add	sp, sp, #12
 1064 0084 F007BDE8 		ldmfd	sp!, {r4, r5, r6, r7, r8, r9, sl}
 1065 0088 1EFF2FE1 		bx	lr
 1066              		.cfi_endproc
 1067              	.LFE1:
 1069              		.align	2
 1070              		.global	rgb2gray
 1072              	rgb2gray:
 1073              	.LFB2:
  31:../trafo.c    **** 
  32:../trafo.c    **** 
  33:../trafo.c    **** int rgb2gray(pixelRGB pixel) {
 1074              		.loc 1 33 0
 1075              		.cfi_startproc
 1076              		@ Function supports interworking.
 1077              		@ args = 0, pretend = 0, frame = 16
 1078              		@ frame_needed = 0, uses_anonymous_args = 0
 1079              		@ link register save eliminated.
 1080 008c 10D04DE2 		sub	sp, sp, #16
 1081              	.LCFI2:
 1082              		.cfi_def_cfa_offset 16
 1083 0090 04308DE2 		add	r3, sp, #4
 1084 0094 070083E8 		stmia	r3, {r0, r1, r2}
  34:../trafo.c    ****     return  ( (2126*pixel.R + 7152*pixel.G + 722*pixel.B) /10000);
 1085              		.loc 1 34 0
 1086 0098 08309DE5 		ldr	r3, [sp, #8]
 1087 009c 831163E0 		rsb	r1, r3, r3, asl #3
 1088 00a0 011363E0 		rsb	r1, r3, r1, asl #6
 1089 00a4 802280E0 		add	r2, r0, r0, asl #5
 1090 00a8 022180E0 		add	r2, r0, r2, asl #2
 1091 00ac 823160E0 		rsb	r3, r0, r2, asl #3
 1092 00b0 8320A0E1 		mov	r2, r3, asl #1
 1093 00b4 013282E0 		add	r3, r2, r1, asl #4
 1094 00b8 0C209DE5 		ldr	r2, [sp, #12]
 1095 00bc 821082E0 		add	r1, r2, r2, asl #1
 1096 00c0 011261E0 		rsb	r1, r1, r1, asl #4
 1097 00c4 812182E0 		add	r2, r2, r1, asl #3
 1098 00c8 822083E0 		add	r2, r3, r2, asl #1
 1099 00cc 10009FE5 		ldr	r0, .L10
 1100 00d0 9230C0E0 		smull	r3, r0, r2, r0
 1101 00d4 C22FA0E1 		mov	r2, r2, asr #31
  35:../trafo.c    **** }
 1102              		.loc 1 35 0
 1103 00d8 400662E0 		rsb	r0, r2, r0, asr #12
 1104 00dc 10D08DE2 		add	sp, sp, #16
 1105 00e0 1EFF2FE1 		bx	lr
 1106              	.L11:
 1107              		.align	2
 1108              	.L10:
 1109 00e4 AD8BDB68 		.word	1759218605
 1110              		.cfi_endproc
 1111              	.LFE2:
 1113              		.align	2
 1114              		.global	RGB2GrayMatrix
 1116              	RGB2GrayMatrix:
 1117              	.LFB0:
  10:../trafo.c    **** void RGB2GrayMatrix(pixelRGB orig[N][M], int dest[N][M], int nfilas, int ncols) {
 1118              		.loc 1 10 0
 1119              		.cfi_startproc
 1120              		@ Function supports interworking.
 1121              		@ args = 0, pretend = 0, frame = 8
 1122              		@ frame_needed = 1, uses_anonymous_args = 0
 1123              	.LVL8:
 1124 00e8 0DC0A0E1 		mov	ip, sp
 1125              	.LCFI3:
 1126              		.cfi_def_cfa_register 12
 1127 00ec F0DF2DE9 		stmfd	sp!, {r4, r5, r6, r7, r8, r9, sl, fp, ip, lr, pc}
 1128 00f0 04B04CE2 		sub	fp, ip, #4
 1129              		.cfi_offset 14, -8
 1130              		.cfi_offset 13, -12
 1131              		.cfi_offset 11, -16
 1132              		.cfi_offset 10, -20
 1133              		.cfi_offset 9, -24
 1134              		.cfi_offset 8, -28
 1135              		.cfi_offset 7, -32
 1136              		.cfi_offset 6, -36
 1137              		.cfi_offset 5, -40
 1138              		.cfi_offset 4, -44
 1139              	.LCFI4:
 1140              		.cfi_def_cfa 11, 4
 1141 00f4 0CD04DE2 		sub	sp, sp, #12
 1142 00f8 0360A0E1 		mov	r6, r3
 1143              	.LVL9:
  13:../trafo.c    ****     for (i=0;i<nfilas;i++)
 1144              		.loc 1 13 0
 1145 00fc 000052E3 		cmp	r2, #0
 1146 0100 30200BE5 		str	r2, [fp, #-48]
 1147 0104 01A0A0C1 		movgt	sl, r1
 1148 0108 0090A0C1 		movgt	r9, r0
 1149 010c 0080A0C3 		movgt	r8, #0
 1150 0110 0E0000CA 		bgt	.L14
 1151 0114 130000EA 		b	.L12
 1152              	.LVL10:
 1153              	.L15:
  15:../trafo.c    ****             dest[i][j] =  rgb2gray(orig[i][j]);
 1154              		.loc 1 15 0 discriminator 2
 1155 0118 843084E0 		add	r3, r4, r4, asl #1
 1156 011c 033187E0 		add	r3, r7, r3, asl #2
 1157 0120 070093E8 		ldmia	r3, {r0, r1, r2}
 1158 0124 FEFFFFEB 		bl	rgb2gray
 1159 0128 040085E4 		str	r0, [r5], #4
  14:../trafo.c    ****         for (j=0; j<ncols; j++)
 1160              		.loc 1 14 0 discriminator 2
 1161 012c 014084E2 		add	r4, r4, #1
 1162              	.LVL11:
 1163 0130 060054E1 		cmp	r4, r6
 1164 0134 F7FFFF1A 		bne	.L15
 1165              	.LVL12:
 1166              	.L16:
  13:../trafo.c    ****     for (i=0;i<nfilas;i++)
 1167              		.loc 1 13 0
 1168 0138 018088E2 		add	r8, r8, #1
 1169              	.LVL13:
 1170 013c 10A08AE2 		add	sl, sl, #16
 1171 0140 309089E2 		add	r9, r9, #48
 1172 0144 30301BE5 		ldr	r3, [fp, #-48]
 1173 0148 030058E1 		cmp	r8, r3
 1174 014c 0500000A 		beq	.L12
 1175              	.LVL14:
 1176              	.L14:
  14:../trafo.c    ****         for (j=0; j<ncols; j++)
 1177              		.loc 1 14 0 discriminator 1
 1178 0150 000056E3 		cmp	r6, #0
 1179 0154 0970A0C1 		movgt	r7, r9
 1180 0158 0A50A0C1 		movgt	r5, sl
 1181 015c 0040A0C3 		movgt	r4, #0
 1182 0160 ECFFFFCA 		bgt	.L15
 1183 0164 F3FFFFEA 		b	.L16
 1184              	.LVL15:
 1185              	.L12:
  17:../trafo.c    **** }
 1186              		.loc 1 17 0
 1187 0168 28D04BE2 		sub	sp, fp, #40
 1188 016c F06F9DE8 		ldmfd	sp, {r4, r5, r6, r7, r8, r9, sl, fp, sp, lr}
 1189 0170 1EFF2FE1 		bx	lr
 1190              		.cfi_endproc
 1191              	.LFE0:
 1193              	.Letext0: